; Function Attrs: nounwind uwtable
define void @jsimd_convsamp(ptr noundef %0, i32 noundef %1, ptr noundef %2) local_unnamed_addr #0 {
  %4 = tail call align 4 ptr @llvm.threadlocal.address.p0(ptr align 4 @simd_support)
  %5 = load i32, ptr %4, align 4, !tbaa !3
  %6 = icmp eq i32 %5, -1
  br i1 %6, label %7, label %8

7:                                                ; preds = %3
  tail call fastcc void @init_simd()
  %.pre = load i32, ptr %4, align 4, !tbaa !3
  br label %8

8:                                                ; preds = %7, %3
  %9 = phi i32 [ %.pre, %7 ], [ %5, %3 ]
  %10 = and i32 %9, 128
  %.not = icmp eq i32 %10, 0
  br i1 %.not, label %12, label %11

11:                                               ; preds = %8
  tail call void @jsimd_convsamp_avx2(ptr noundef %0, i32 noundef %1, ptr noundef %2) #8
  br label %13

12:                                               ; preds = %8
  tail call void @jsimd_convsamp_sse2(ptr noundef %0, i32 noundef %1, ptr noundef %2) #8
  br label %13

13:                                               ; preds = %12, %11
  ret void
}